target datalayout = "e-m:e-p270:32:32-p271:32:32-p272:64:64-i64:64-i128:128-f80:128-n8:16:32:64-S128"
target triple = "x86_64-pc-linux-gnu"

%struct.IDAMemRec = type { double, ptr, ptr, i32, double, double, ptr, i32, ptr, ptr, i32, ptr, ptr, i32, i32, double, double, ptr, i32, i32, i32, ptr, ptr, i32, ptr, ptr, ptr, i32, double, i32, i32, double, ptr, ptr, i32, ptr, ptr, i32, i32, i32, double, ptr, ptr, [6 x ptr], [6 x double], [6 x double], [6 x double], [6 x double], [6 x double], ptr, ptr, ptr, ptr, ptr, ptr, ptr, ptr, ptr, ptr, ptr, ptr, ptr, ptr, ptr, [6 x ptr], ptr, ptr, ptr, ptr, [6 x ptr], ptr, ptr, ptr, ptr, ptr, ptr, ptr, ptr, ptr, ptr, ptr, ptr, ptr, ptr, [6 x ptr], ptr, ptr, ptr, ptr, ptr, double, ptr, ptr, i32, i32, i32, i32, i32, i32, i32, double, double, double, i32, double, i32, i32, i32, i32, double, double, double, double, double, double, double, double, double, double, double, double, double, double, i32, i32, i32, i32, i32, i64, double, i32, i64, i64, i64, i64, i64, i64, i64, i64, i64, i64, i64, i64, i64, i64, i64, i64, i64, i64, i64, i64, i64, i64, i64, i64, ptr, ptr, ptr, i32, i32, i32, i32, i32, i32, i32, i32, i32, i32, i32, i32, i32, ptr, ptr, ptr, ptr, ptr, ptr, i32, i32, i32, i32, i32, i32, double, double, double, ptr, i32, ptr, ptr, double, double, double, ptr, ptr, ptr, double, double, i32, i32, i64, ptr, i32, i32, ptr, i32 }

@.str = private unnamed_addr constant [5 x i8] c"IDAS\00", align 1
@.str.1 = private unnamed_addr constant [10 x i8] c"IDACreate\00", align 1
@.str.2 = private unnamed_addr constant [25 x i8] c"A memory request failed.\00", align 1
@stderr = external global ptr, align 8

; Function Attrs: nounwind uwtable
define ptr @IDACreate() #0 {
  %1 = alloca ptr, align 8
  %2 = alloca ptr, align 8
  %3 = alloca i32, align 4
  call void @llvm.lifetime.start.p0(i64 8, ptr %2) #8
  store ptr null, ptr %2, align 8, !tbaa !3
  %4 = call noalias ptr @malloc(i64 noundef 1832) #9
  store ptr %4, ptr %2, align 8, !tbaa !3
  %5 = load ptr, ptr %2, align 8, !tbaa !3
  %6 = icmp eq ptr %5, null
  br i1 %6, label %7, label %8

7:                                                ; preds = %0
  call void (ptr, i32, ptr, ptr, ptr, ...) @IDAProcessError(ptr noundef null, i32 noundef 0, ptr noundef @.str, ptr noundef @.str.1, ptr noundef @.str.2)
  store ptr null, ptr %1, align 8
  store i32 1, ptr %3, align 4
  br label %157

8:                                                ; preds = %0
  %9 = load ptr, ptr %2, align 8, !tbaa !3
  call void @llvm.memset.p0.i64(ptr align 8 %9, i8 0, i64 1832, i1 false)
  %10 = load ptr, ptr %2, align 8, !tbaa !3
  %11 = getelementptr inbounds nuw %struct.IDAMemRec, ptr %10, i32 0, i32 0
  store double 0x3CB0000000000000, ptr %11, align 8, !tbaa !8
  %12 = load ptr, ptr %2, align 8, !tbaa !3
  %13 = getelementptr inbounds nuw %struct.IDAMemRec, ptr %12, i32 0, i32 1
  store ptr null, ptr %13, align 8, !tbaa !19
  %14 = load ptr, ptr %2, align 8, !tbaa !3
  %15 = getelementptr inbounds nuw %struct.IDAMemRec, ptr %14, i32 0, i32 2
  store ptr null, ptr %15, align 8, !tbaa !20
  %16 = load ptr, ptr %2, align 8, !tbaa !3
  %17 = getelementptr inbounds nuw %struct.IDAMemRec, ptr %16, i32 0, i32 3
  store i32 0, ptr %17, align 8, !tbaa !21
  %18 = load ptr, ptr %2, align 8, !tbaa !3
  %19 = getelementptr inbounds nuw %struct.IDAMemRec, ptr %18, i32 0, i32 7
  store i32 0, ptr %19, align 8, !tbaa !22
  %20 = load ptr, ptr %2, align 8, !tbaa !3
  %21 = getelementptr inbounds nuw %struct.IDAMemRec, ptr %20, i32 0, i32 8
  store ptr null, ptr %21, align 8, !tbaa !23
  %22 = load ptr, ptr %2, align 8, !tbaa !3
  %23 = getelementptr inbounds nuw %struct.IDAMemRec, ptr %22, i32 0, i32 9
  store ptr null, ptr %23, align 8, !tbaa !24
  %24 = load ptr, ptr %2, align 8, !tbaa !3
  %25 = getelementptr inbounds nuw %struct.IDAMemRec, ptr %24, i32 0, i32 155
  store ptr @IDAErrHandler, ptr %25, align 8, !tbaa !25
  %26 = load ptr, ptr %2, align 8, !tbaa !3
  %27 = load ptr, ptr %2, align 8, !tbaa !3
  %28 = getelementptr inbounds nuw %struct.IDAMemRec, ptr %27, i32 0, i32 156
  store ptr %26, ptr %28, align 8, !tbaa !26
  %29 = load ptr, ptr @stderr, align 8, !tbaa !27
  %30 = load ptr, ptr %2, align 8, !tbaa !3
  %31 = getelementptr inbounds nuw %struct.IDAMemRec, ptr %30, i32 0, i32 157
  store ptr %29, ptr %31, align 8, !tbaa !28
  %32 = load ptr, ptr %2, align 8, !tbaa !3
  %33 = getelementptr inbounds nuw %struct.IDAMemRec, ptr %32, i32 0, i32 126
  store i32 5, ptr %33, align 4, !tbaa !29
  %34 = load ptr, ptr %2, align 8, !tbaa !3
  %35 = getelementptr inbounds nuw %struct.IDAMemRec, ptr %34, i32 0, i32 128
  store i64 500, ptr %35, align 8, !tbaa !30
  %36 = load ptr, ptr %2, align 8, !tbaa !3
  %37 = getelementptr inbounds nuw %struct.IDAMemRec, ptr %36, i32 0, i32 129
  store double 0.000000e+00, ptr %37, align 8, !tbaa !31
  %38 = load ptr, ptr %2, align 8, !tbaa !3
  %39 = getelementptr inbounds nuw %struct.IDAMemRec, ptr %38, i32 0, i32 109
  store double 0.000000e+00, ptr %39, align 8, !tbaa !32
  %40 = load ptr, ptr %2, align 8, !tbaa !3
  %41 = getelementptr inbounds nuw %struct.IDAMemRec, ptr %40, i32 0, i32 120
  store double 3.300000e-01, ptr %41, align 8, !tbaa !33
  %42 = load ptr, ptr %2, align 8, !tbaa !3
  %43 = getelementptr inbounds nuw %struct.IDAMemRec, ptr %42, i32 0, i32 125
  store i32 10, ptr %43, align 8, !tbaa !34
  %44 = load ptr, ptr %2, align 8, !tbaa !3
  %45 = getelementptr inbounds nuw %struct.IDAMemRec, ptr %44, i32 0, i32 123
  store i32 10, ptr %45, align 8, !tbaa !35
  %46 = load ptr, ptr %2, align 8, !tbaa !3
  %47 = getelementptr inbounds nuw %struct.IDAMemRec, ptr %46, i32 0, i32 124
  store i32 4, ptr %47, align 4, !tbaa !36
  %48 = load ptr, ptr %2, align 8, !tbaa !3
  %49 = getelementptr inbounds nuw %struct.IDAMemRec, ptr %48, i32 0, i32 181
  store i32 0, ptr %49, align 8, !tbaa !37
  %50 = load ptr, ptr %2, align 8, !tbaa !3
  %51 = getelementptr inbounds nuw %struct.IDAMemRec, ptr %50, i32 0, i32 53
  store ptr null, ptr %51, align 8, !tbaa !38
  %52 = load ptr, ptr %2, align 8, !tbaa !3
  %53 = getelementptr inbounds nuw %struct.IDAMemRec, ptr %52, i32 0, i32 54
  store ptr null, ptr %53, align 8, !tbaa !39
  %54 = load ptr, ptr %2, align 8, !tbaa !3
  %55 = getelementptr inbounds nuw %struct.IDAMemRec, ptr %54, i32 0, i32 180
  store i32 0, ptr %55, align 4, !tbaa !40
  %56 = load ptr, ptr %2, align 8, !tbaa !3
  %57 = getelementptr inbounds nuw %struct.IDAMemRec, ptr %56, i32 0, i32 103
  store i32 0, ptr %57, align 8, !tbaa !41
  %58 = load ptr, ptr %2, align 8, !tbaa !3
  %59 = getelementptr inbounds nuw %struct.IDAMemRec, ptr %58, i32 0, i32 127
  store i32 5, ptr %59, align 8, !tbaa !42
  %60 = load ptr, ptr %2, align 8, !tbaa !3
  %61 = getelementptr inbounds nuw %struct.IDAMemRec, ptr %60, i32 0, i32 100
  store double 0x3F6B089A02752547, ptr %61, align 8, !tbaa !43
  %62 = load ptr, ptr %2, align 8, !tbaa !3
  %63 = getelementptr inbounds nuw %struct.IDAMemRec, ptr %62, i32 0, i32 95
  store i32 5, ptr %63, align 8, !tbaa !44
  %64 = load ptr, ptr %2, align 8, !tbaa !3
  %65 = getelementptr inbounds nuw %struct.IDAMemRec, ptr %64, i32 0, i32 96
  store i32 4, ptr %65, align 4, !tbaa !45
  %66 = load ptr, ptr %2, align 8, !tbaa !3
  %67 = getelementptr inbounds nuw %struct.IDAMemRec, ptr %66, i32 0, i32 97
  store i32 10, ptr %67, align 8, !tbaa !46
  %68 = load ptr, ptr %2, align 8, !tbaa !3
  %69 = getelementptr inbounds nuw %struct.IDAMemRec, ptr %68, i32 0, i32 94
  store i32 0, ptr %69, align 4, !tbaa !47
  %70 = load ptr, ptr %2, align 8, !tbaa !3
  %71 = getelementptr inbounds nuw %struct.IDAMemRec, ptr %70, i32 0, i32 0
  %72 = load double, ptr %71, align 8, !tbaa !8
  %73 = call double @SUNRpowerR(double noundef %72, double noundef 6.670000e-01)
  %74 = load ptr, ptr %2, align 8, !tbaa !3
  %75 = getelementptr inbounds nuw %struct.IDAMemRec, ptr %74, i32 0, i32 101
  store double %73, ptr %75, align 8, !tbaa !48
  %76 = load ptr, ptr %2, align 8, !tbaa !3
  %77 = getelementptr inbounds nuw %struct.IDAMemRec, ptr %76, i32 0, i32 10
  store i32 0, ptr %77, align 8, !tbaa !49
  %78 = load ptr, ptr %2, align 8, !tbaa !3
  %79 = getelementptr inbounds nuw %struct.IDAMemRec, ptr %78, i32 0, i32 11
  store ptr null, ptr %79, align 8, !tbaa !50
  %80 = load ptr, ptr %2, align 8, !tbaa !3
  %81 = getelementptr inbounds nuw %struct.IDAMemRec, ptr %80, i32 0, i32 13
  store i32 0, ptr %81, align 8, !tbaa !51
  %82 = load ptr, ptr %2, align 8, !tbaa !3
  %83 = getelementptr inbounds nuw %struct.IDAMemRec, ptr %82, i32 0, i32 14
  store i32 0, ptr %83, align 4, !tbaa !52
  %84 = load ptr, ptr %2, align 8, !tbaa !3
  %85 = getelementptr inbounds nuw %struct.IDAMemRec, ptr %84, i32 0, i32 18
  store i32 0, ptr %85, align 8, !tbaa !53
  %86 = load ptr, ptr %2, align 8, !tbaa !3
  %87 = load ptr, ptr %2, align 8, !tbaa !3
  %88 = getelementptr inbounds nuw %struct.IDAMemRec, ptr %87, i32 0, i32 22
  store ptr %86, ptr %88, align 8, !tbaa !54
  %89 = load ptr, ptr %2, align 8, !tbaa !3
  %90 = getelementptr inbounds nuw %struct.IDAMemRec, ptr %89, i32 0, i32 21
  store ptr @IDASensResDQ, ptr %90, align 8, !tbaa !55
  %91 = load ptr, ptr %2, align 8, !tbaa !3
  %92 = getelementptr inbounds nuw %struct.IDAMemRec, ptr %91, i32 0, i32 23
  store i32 1, ptr %92, align 8, !tbaa !56
  %93 = load ptr, ptr %2, align 8, !tbaa !3
  %94 = getelementptr inbounds nuw %struct.IDAMemRec, ptr %93, i32 0, i32 27
  store i32 1, ptr %94, align 8, !tbaa !57
  %95 = load ptr, ptr %2, align 8, !tbaa !3
  %96 = getelementptr inbounds nuw %struct.IDAMemRec, ptr %95, i32 0, i32 28
  store double 0.000000e+00, ptr %96, align 8, !tbaa !58
  %97 = load ptr, ptr %2, align 8, !tbaa !3
  %98 = getelementptr inbounds nuw %struct.IDAMemRec, ptr %97, i32 0, i32 24
  store ptr null, ptr %98, align 8, !tbaa !59
  %99 = load ptr, ptr %2, align 8, !tbaa !3
  %100 = getelementptr inbounds nuw %struct.IDAMemRec, ptr %99, i32 0, i32 25
  store ptr null, ptr %100, align 8, !tbaa !60
  %101 = load ptr, ptr %2, align 8, !tbaa !3
  %102 = getelementptr inbounds nuw %struct.IDAMemRec, ptr %101, i32 0, i32 26
  store ptr null, ptr %102, align 8, !tbaa !61
  %103 = load ptr, ptr %2, align 8, !tbaa !3
  %104 = getelementptr inbounds nuw %struct.IDAMemRec, ptr %103, i32 0, i32 29
  store i32 0, ptr %104, align 8, !tbaa !62
  %105 = load ptr, ptr %2, align 8, !tbaa !3
  %106 = getelementptr inbounds nuw %struct.IDAMemRec, ptr %105, i32 0, i32 130
  store i32 4, ptr %106, align 8, !tbaa !63
  %107 = load ptr, ptr %2, align 8, !tbaa !3
  %108 = getelementptr inbounds nuw %struct.IDAMemRec, ptr %107, i32 0, i32 30
  store i32 4, ptr %108, align 4, !tbaa !64
  %109 = load ptr, ptr %2, align 8, !tbaa !3
  %110 = getelementptr inbounds nuw %struct.IDAMemRec, ptr %109, i32 0, i32 34
  store i32 0, ptr %110, align 8, !tbaa !65
  %111 = load ptr, ptr %2, align 8, !tbaa !3
  %112 = load ptr, ptr %2, align 8, !tbaa !3
  %113 = getelementptr inbounds nuw %struct.IDAMemRec, ptr %112, i32 0, i32 36
  store ptr %111, ptr %113, align 8, !tbaa !66
  %114 = load ptr, ptr %2, align 8, !tbaa !3
  %115 = getelementptr inbounds nuw %struct.IDAMemRec, ptr %114, i32 0, i32 35
  store ptr @IDAQuadSensRhsInternalDQ, ptr %115, align 8, !tbaa !67
  %116 = load ptr, ptr %2, align 8, !tbaa !3
  %117 = getelementptr inbounds nuw %struct.IDAMemRec, ptr %116, i32 0, i32 37
  store i32 1, ptr %117, align 8, !tbaa !68
  %118 = load ptr, ptr %2, align 8, !tbaa !3
  %119 = getelementptr inbounds nuw %struct.IDAMemRec, ptr %118, i32 0, i32 38
  store i32 0, ptr %119, align 4, !tbaa !69
  %120 = load ptr, ptr %2, align 8, !tbaa !3
  %121 = getelementptr inbounds nuw %struct.IDAMemRec, ptr %120, i32 0, i32 39
  store i32 4, ptr %121, align 8, !tbaa !70
  %122 = load ptr, ptr %2, align 8, !tbaa !3
  %123 = getelementptr inbounds nuw %struct.IDAMemRec, ptr %122, i32 0, i32 203
  store i32 0, ptr %123, align 4, !tbaa !71
  %124 = load ptr, ptr %2, align 8, !tbaa !3
  %125 = getelementptr inbounds nuw %struct.IDAMemRec, ptr %124, i32 0, i32 204
  store ptr null, ptr %125, align 8, !tbaa !72
  %126 = load ptr, ptr %2, align 8, !tbaa !3
  %127 = getelementptr inbounds nuw %struct.IDAMemRec, ptr %126, i32 0, i32 153
  store i64 55, ptr %127, align 8, !tbaa !73
  %128 = load ptr, ptr %2, align 8, !tbaa !3
  %129 = getelementptr inbounds nuw %struct.IDAMemRec, ptr %128, i32 0, i32 154
  store i64 38, ptr %129, align 8, !tbaa !74
  %130 = load ptr, ptr %2, align 8, !tbaa !3
  %131 = getelementptr inbounds nuw %struct.IDAMemRec, ptr %130, i32 0, i32 159
  store i32 0, ptr %131, align 4, !tbaa !75
  %132 = load ptr, ptr %2, align 8, !tbaa !3
  %133 = getelementptr inbounds nuw %struct.IDAMemRec, ptr %132, i32 0, i32 160
  store i32 0, ptr %133, align 8, !tbaa !76
  %134 = load ptr, ptr %2, align 8, !tbaa !3
  %135 = getelementptr inbounds nuw %struct.IDAMemRec, ptr %134, i32 0, i32 161
  store i32 0, ptr %135, align 4, !tbaa !77
  %136 = load ptr, ptr %2, align 8, !tbaa !3
  %137 = getelementptr inbounds nuw %struct.IDAMemRec, ptr %136, i32 0, i32 162
  store i32 0, ptr %137, align 8, !tbaa !78
  %138 = load ptr, ptr %2, align 8, !tbaa !3
  %139 = getelementptr inbounds nuw %struct.IDAMemRec, ptr %138, i32 0, i32 163
  store i32 0, ptr %139, align 4, !tbaa !79
  %140 = load ptr, ptr %2, align 8, !tbaa !3
  %141 = getelementptr inbounds nuw %struct.IDAMemRec, ptr %140, i32 0, i32 164
  store i32 0, ptr %141, align 8, !tbaa !80
  %142 = load ptr, ptr %2, align 8, !tbaa !3
  %143 = getelementptr inbounds nuw %struct.IDAMemRec, ptr %142, i32 0, i32 165
  store i32 0, ptr %143, align 4, !tbaa !81
  %144 = load ptr, ptr %2, align 8, !tbaa !3
  %145 = getelementptr inbounds nuw %struct.IDAMemRec, ptr %144, i32 0, i32 166
  store i32 0, ptr %145, align 8, !tbaa !82
  %146 = load ptr, ptr %2, align 8, !tbaa !3
  %147 = getelementptr inbounds nuw %struct.IDAMemRec, ptr %146, i32 0, i32 167
  store i32 0, ptr %147, align 4, !tbaa !83
  %148 = load ptr, ptr %2, align 8, !tbaa !3
  %149 = getelementptr inbounds nuw %struct.IDAMemRec, ptr %148, i32 0, i32 168
  store i32 0, ptr %149, align 8, !tbaa !84
  %150 = load ptr, ptr %2, align 8, !tbaa !3
  %151 = getelementptr inbounds nuw %struct.IDAMemRec, ptr %150, i32 0, i32 169
  store i32 0, ptr %151, align 4, !tbaa !85
  %152 = load ptr, ptr %2, align 8, !tbaa !3
  %153 = getelementptr inbounds nuw %struct.IDAMemRec, ptr %152, i32 0, i32 170
  store i32 0, ptr %153, align 8, !tbaa !86
  %154 = load ptr, ptr %2, align 8, !tbaa !3
  %155 = getelementptr inbounds nuw %struct.IDAMemRec, ptr %154, i32 0, i32 205
  store i32 0, ptr %155, align 8, !tbaa !87
  %156 = load ptr, ptr %2, align 8, !tbaa !3
  store ptr %156, ptr %1, align 8
  store i32 1, ptr %3, align 4
  br label %157

157:                                              ; preds = %8, %7
  call void @llvm.lifetime.end.p0(i64 8, ptr %2) #8
  %158 = load ptr, ptr %1, align 8
  ret ptr %158
}