; Function Attrs: nounwind uwtable
define noundef ptr @IDACreate() local_unnamed_addr #0 {
  %calloc = tail call dereferenceable_or_null(1832) ptr @calloc(i64 1, i64 1832)
  %1 = icmp eq ptr %calloc, null
  br i1 %1, label %2, label %3

2:                                                ; preds = %0
  tail call void (ptr, i32, ptr, ptr, ptr, ...) @IDAProcessError(ptr noundef null, i32 noundef 0, ptr noundef nonnull @.str, ptr noundef nonnull @.str.1, ptr noundef nonnull @.str.2)
  br label %47

3:                                                ; preds = %0
  store double 0x3CB0000000000000, ptr %calloc, align 8, !tbaa !3
  %4 = getelementptr inbounds nuw i8, ptr %calloc, i64 1512
  store ptr @IDAErrHandler, ptr %4, align 8, !tbaa !17
  %5 = getelementptr inbounds nuw i8, ptr %calloc, i64 1520
  store ptr %calloc, ptr %5, align 8, !tbaa !18
  %6 = load ptr, ptr @stderr, align 8, !tbaa !19
  %7 = getelementptr inbounds nuw i8, ptr %calloc, i64 1528
  store ptr %6, ptr %7, align 8, !tbaa !20
  %8 = getelementptr inbounds nuw i8, ptr %calloc, i64 1284
  store i32 5, ptr %8, align 4, !tbaa !21
  %9 = getelementptr inbounds nuw i8, ptr %calloc, i64 1296
  store i64 500, ptr %9, align 8, !tbaa !22
  %10 = getelementptr inbounds nuw i8, ptr %calloc, i64 1248
  store double 3.300000e-01, ptr %10, align 8, !tbaa !23
  %11 = getelementptr inbounds nuw i8, ptr %calloc, i64 1280
  store i32 10, ptr %11, align 8, !tbaa !24
  %12 = getelementptr inbounds nuw i8, ptr %calloc, i64 1272
  store i32 10, ptr %12, align 8, !tbaa !25
  %13 = getelementptr inbounds nuw i8, ptr %calloc, i64 1276
  store i32 4, ptr %13, align 4, !tbaa !26
  %14 = getelementptr inbounds nuw i8, ptr %calloc, i64 1288
  store i32 5, ptr %14, align 8, !tbaa !27
  %15 = getelementptr inbounds nuw i8, ptr %calloc, i64 1104
  store double 0x3F6B089A02752547, ptr %15, align 8, !tbaa !28
  %16 = getelementptr inbounds nuw i8, ptr %calloc, i64 1080
  store i32 5, ptr %16, align 8, !tbaa !29
  %17 = getelementptr inbounds nuw i8, ptr %calloc, i64 1084
  store i32 4, ptr %17, align 4, !tbaa !30
  %18 = getelementptr inbounds nuw i8, ptr %calloc, i64 1088
  store i32 10, ptr %18, align 8, !tbaa !31
  %19 = tail call double @SUNRpowerR(double noundef 0x3CB0000000000000, double noundef 6.670000e-01) #13
  %20 = getelementptr inbounds nuw i8, ptr %calloc, i64 1112
  store double %19, ptr %20, align 8, !tbaa !32
  %21 = getelementptr inbounds nuw i8, ptr %calloc, i64 80
  store i32 0, ptr %21, align 8, !tbaa !33
  %22 = getelementptr inbounds nuw i8, ptr %calloc, i64 88
  store ptr null, ptr %22, align 8, !tbaa !34
  %23 = getelementptr inbounds nuw i8, ptr %calloc, i64 104
  store i32 0, ptr %23, align 8, !tbaa !35
  %24 = getelementptr inbounds nuw i8, ptr %calloc, i64 108
  store i32 0, ptr %24, align 4, !tbaa !36
  %25 = getelementptr inbounds nuw i8, ptr %calloc, i64 136
  store i32 0, ptr %25, align 8, !tbaa !37
  %26 = getelementptr inbounds nuw i8, ptr %calloc, i64 160
  store ptr %calloc, ptr %26, align 8, !tbaa !38
  %27 = getelementptr inbounds nuw i8, ptr %calloc, i64 152
  store ptr @IDASensResDQ, ptr %27, align 8, !tbaa !39
  %28 = getelementptr inbounds nuw i8, ptr %calloc, i64 168
  store i32 1, ptr %28, align 8, !tbaa !40
  %29 = getelementptr inbounds nuw i8, ptr %calloc, i64 200
  store i32 1, ptr %29, align 8, !tbaa !41
  %30 = getelementptr inbounds nuw i8, ptr %calloc, i64 208
  store double 0.000000e+00, ptr %30, align 8, !tbaa !42
  %31 = getelementptr inbounds nuw i8, ptr %calloc, i64 176
  %32 = getelementptr inbounds nuw i8, ptr %calloc, i64 216
  store i32 0, ptr %32, align 8, !tbaa !43
  %33 = getelementptr inbounds nuw i8, ptr %calloc, i64 1312
  tail call void @llvm.memset.p0.i64(ptr noundef nonnull align 8 dereferenceable(24) %31, i8 0, i64 24, i1 false)
  store i32 4, ptr %33, align 8, !tbaa !44
  %34 = getelementptr inbounds nuw i8, ptr %calloc, i64 220
  store i32 4, ptr %34, align 4, !tbaa !45
  %35 = getelementptr inbounds nuw i8, ptr %calloc, i64 248
  store i32 0, ptr %35, align 8, !tbaa !46
  %36 = getelementptr inbounds nuw i8, ptr %calloc, i64 264
  store ptr %calloc, ptr %36, align 8, !tbaa !47
  %37 = getelementptr inbounds nuw i8, ptr %calloc, i64 256
  store ptr @IDAQuadSensRhsInternalDQ, ptr %37, align 8, !tbaa !48
  %38 = getelementptr inbounds nuw i8, ptr %calloc, i64 272
  store i32 1, ptr %38, align 8, !tbaa !49
  %39 = getelementptr inbounds nuw i8, ptr %calloc, i64 276
  store i32 0, ptr %39, align 4, !tbaa !50
  %40 = getelementptr inbounds nuw i8, ptr %calloc, i64 280
  store i32 4, ptr %40, align 8, !tbaa !51
  %41 = getelementptr inbounds nuw i8, ptr %calloc, i64 1812
  store i32 0, ptr %41, align 4, !tbaa !52
  %42 = getelementptr inbounds nuw i8, ptr %calloc, i64 1816
  store ptr null, ptr %42, align 8, !tbaa !53
  %43 = getelementptr inbounds nuw i8, ptr %calloc, i64 1496
  store i64 55, ptr %43, align 8, !tbaa !54
  %44 = getelementptr inbounds nuw i8, ptr %calloc, i64 1504
  store i64 38, ptr %44, align 8, !tbaa !55
  %45 = getelementptr inbounds nuw i8, ptr %calloc, i64 1540
  %46 = getelementptr inbounds nuw i8, ptr %calloc, i64 1824
  store i32 0, ptr %46, align 8, !tbaa !56
  tail call void @llvm.memset.p0.i64(ptr noundef nonnull align 4 dereferenceable(48) %45, i8 0, i64 48, i1 false)
  br label %47

47:                                               ; preds = %3, %2
  ret ptr %calloc
}